; Function Attrs: nounwind uwtable
define internal ptr @_testlimitedcapi_pack_full_version(ptr readnone captures(none) %0, ptr noundef readonly captures(none) %1, i64 noundef %2) #0 {
  %.not = icmp eq i64 %2, 5
  br i1 %.not, label %7, label %4

4:                                                ; preds = %3
  %5 = load ptr, ptr @PyExc_TypeError, align 8, !tbaa !3
  %6 = tail call ptr (ptr, ptr, ...) @PyErr_Format(ptr noundef %5, ptr noundef nonnull @.str.3, i64 noundef %2) #3
  br label %74

7:                                                ; preds = %3
  %8 = load ptr, ptr %1, align 8, !tbaa !3
  %9 = tail call i32 @PyLong_AsInt(ptr noundef %8) #3
  %10 = icmp eq i32 %9, -1
  br i1 %10, label %11, label %13

11:                                               ; preds = %7
  %12 = tail call ptr @PyErr_Occurred() #3
  %.not21 = icmp eq ptr %12, null
  br i1 %.not21, label %13, label %74

13:                                               ; preds = %11, %7
  %14 = getelementptr i8, ptr %1, i64 8
  %15 = load ptr, ptr %14, align 8, !tbaa !3
  %16 = tail call i32 @PyLong_AsInt(ptr noundef %15) #3
  %17 = icmp eq i32 %16, -1
  br i1 %17, label %18, label %20

18:                                               ; preds = %13
  %19 = tail call ptr @PyErr_Occurred() #3
  %.not22 = icmp eq ptr %19, null
  br i1 %.not22, label %20, label %74

20:                                               ; preds = %18, %13
  %21 = getelementptr i8, ptr %1, i64 16
  %22 = load ptr, ptr %21, align 8, !tbaa !3
  %23 = tail call i32 @PyLong_AsInt(ptr noundef %22) #3
  %24 = icmp eq i32 %23, -1
  br i1 %24, label %25, label %27

25:                                               ; preds = %20
  %26 = tail call ptr @PyErr_Occurred() #3
  %.not23 = icmp eq ptr %26, null
  br i1 %.not23, label %27, label %74

27:                                               ; preds = %25, %20
  %28 = getelementptr i8, ptr %1, i64 24
  %29 = load ptr, ptr %28, align 8, !tbaa !3
  %30 = tail call i32 @PyLong_AsInt(ptr noundef %29) #3
  %31 = icmp eq i32 %30, -1
  br i1 %31, label %32, label %34

32:                                               ; preds = %27
  %33 = tail call ptr @PyErr_Occurred() #3
  %.not24 = icmp eq ptr %33, null
  br i1 %.not24, label %34, label %74

34:                                               ; preds = %32, %27
  %35 = getelementptr i8, ptr %1, i64 32
  %36 = load ptr, ptr %35, align 8, !tbaa !3
  %37 = tail call i32 @PyLong_AsInt(ptr noundef %36) #3
  %38 = icmp eq i32 %37, -1
  br i1 %38, label %56, label %.split

.split:                                           ; preds = %34
  %39 = shl i32 %9, 24
  %40 = shl i32 %16, 16
  %41 = and i32 %40, 16711680
  %42 = or disjoint i32 %41, %39
  %43 = shl i32 %23, 8
  %44 = and i32 %43, 65280
  %45 = or disjoint i32 %44, %42
  %46 = shl i32 %30, 4
  %47 = and i32 %46, 240
  %48 = or disjoint i32 %47, %45
  %49 = and i32 %37, 15
  %50 = or disjoint i32 %49, %48
  %51 = tail call i32 @Py_PACK_FULL_VERSION(i32 noundef %9, i32 noundef %16, i32 noundef %23, i32 noundef %30, i32 noundef %37) #3
  %52 = icmp eq i32 %50, %51
  br i1 %52, label %_testlimitedcapi_pack_full_version_impl.exit, label %53

53:                                               ; preds = %.split
  tail call void @__assert_fail(ptr noundef nonnull @.str.4, ptr noundef nonnull @.str.5, i32 noundef 40, ptr noundef nonnull @__PRETTY_FUNCTION__._testlimitedcapi_pack_full_version_impl) #4
  unreachable

_testlimitedcapi_pack_full_version_impl.exit:     ; preds = %.split
  %54 = zext i32 %50 to i64
  %55 = tail call ptr @PyLong_FromUnsignedLong(i64 noundef %54) #3
  br label %74

56:                                               ; preds = %34
  %57 = tail call ptr @PyErr_Occurred() #3
  %.not25 = icmp eq ptr %57, null
  br i1 %.not25, label %.split18, label %74

.split18:                                         ; preds = %56
  %58 = shl i32 %9, 24
  %59 = shl i32 %16, 16
  %60 = and i32 %59, 16711680
  %61 = or disjoint i32 %60, %58
  %62 = shl i32 %23, 8
  %63 = and i32 %62, 65280
  %64 = or disjoint i32 %63, %61
  %65 = shl i32 %30, 4
  %66 = and i32 %65, 240
  %67 = or disjoint i32 %66, %64
  %68 = or disjoint i32 %67, 15
  %69 = tail call i32 @Py_PACK_FULL_VERSION(i32 noundef %9, i32 noundef %16, i32 noundef %23, i32 noundef %30, i32 noundef -1) #3
  %70 = icmp eq i32 %68, %69
  br i1 %70, label %_testlimitedcapi_pack_full_version_impl.exit26, label %71

71:                                               ; preds = %.split18
  tail call void @__assert_fail(ptr noundef nonnull @.str.4, ptr noundef nonnull @.str.5, i32 noundef 40, ptr noundef nonnull @__PRETTY_FUNCTION__._testlimitedcapi_pack_full_version_impl) #4
  unreachable

_testlimitedcapi_pack_full_version_impl.exit26:   ; preds = %.split18
  %72 = zext i32 %68 to i64
  %73 = tail call ptr @PyLong_FromUnsignedLong(i64 noundef %72) #3
  br label %74

74:                                               ; preds = %_testlimitedcapi_pack_full_version_impl.exit, %_testlimitedcapi_pack_full_version_impl.exit26, %56, %32, %25, %18, %11, %4
  %.0 = phi ptr [ null, %4 ], [ null, %11 ], [ null, %18 ], [ null, %25 ], [ null, %32 ], [ null, %56 ], [ %55, %_testlimitedcapi_pack_full_version_impl.exit ], [ %73, %_testlimitedcapi_pack_full_version_impl.exit26 ]
  ret ptr %.0
}